target datalayout = "e-m:e-p270:32:32-p271:32:32-p272:64:64-i64:64-i128:128-f80:128-n8:16:32:64-S128"
target triple = "x86_64-pc-linux-gnu"

%union.jvalue = type { i64 }
%struct.linger = type { i32, i32 }

; Function Attrs: nounwind uwtable
define hidden i32 @dbgsysSetSocketOption(i32 noundef %0, i32 noundef %1, i8 noundef zeroext %2, i64 %3) #0 {
  %5 = alloca i32, align 4
  %6 = alloca %union.jvalue, align 8
  %7 = alloca i32, align 4
  %8 = alloca i32, align 4
  %9 = alloca i8, align 1
  %10 = alloca i32, align 4
  %11 = alloca %struct.linger, align 4
  %12 = alloca i32, align 4
  %13 = alloca i32, align 4
  %14 = getelementptr inbounds %union.jvalue, ptr %6, i32 0, i32 0
  store i64 %3, ptr %14, align 8
  store i32 %0, ptr %7, align 4
  store i32 %1, ptr %8, align 4
  store i8 %2, ptr %9, align 1
  %15 = load i32, ptr %8, align 4
  %16 = icmp eq i32 %15, 1
  br i1 %16, label %17, label %25

17:                                               ; preds = %4
  %18 = load i8, ptr %9, align 1
  %19 = zext i8 %18 to i32
  store i32 %19, ptr %10, align 4
  %20 = load i32, ptr %7, align 4
  %21 = call i32 @setsockopt(i32 noundef %20, i32 noundef 6, i32 noundef 1, ptr noundef %10, i32 noundef 4) #5
  %22 = icmp slt i32 %21, 0
  br i1 %22, label %23, label %24

23:                                               ; preds = %17
  store i32 -1, ptr %5, align 4
  br label %74

24:                                               ; preds = %17
  br label %73

25:                                               ; preds = %4
  %26 = load i32, ptr %8, align 4
  %27 = icmp eq i32 %26, 13
  br i1 %27, label %28, label %48

28:                                               ; preds = %25
  %29 = load i8, ptr %9, align 1
  %30 = zext i8 %29 to i32
  %31 = getelementptr inbounds %struct.linger, ptr %11, i32 0, i32 0
  store i32 %30, ptr %31, align 4
  %32 = load i8, ptr %9, align 1
  %33 = zext i8 %32 to i32
  %34 = icmp ne i32 %33, 0
  br i1 %34, label %35, label %39

35:                                               ; preds = %28
  %36 = load i32, ptr %6, align 8
  %37 = trunc i32 %36 to i16
  %38 = zext i16 %37 to i32
  br label %40

39:                                               ; preds = %28
  br label %40

40:                                               ; preds = %39, %35
  %41 = phi i32 [ %38, %35 ], [ 0, %39 ]
  %42 = getelementptr inbounds %struct.linger, ptr %11, i32 0, i32 1
  store i32 %41, ptr %42, align 4
  %43 = load i32, ptr %7, align 4
  %44 = call i32 @setsockopt(i32 noundef %43, i32 noundef 1, i32 noundef 13, ptr noundef %11, i32 noundef 8) #5
  %45 = icmp slt i32 %44, 0
  br i1 %45, label %46, label %47

46:                                               ; preds = %40
  store i32 -1, ptr %5, align 4
  br label %74

47:                                               ; preds = %40
  br label %72

48:                                               ; preds = %25
  %49 = load i32, ptr %8, align 4
  %50 = icmp eq i32 %49, 7
  br i1 %50, label %51, label %58

51:                                               ; preds = %48
  %52 = load i32, ptr %6, align 8
  store i32 %52, ptr %12, align 4
  %53 = load i32, ptr %7, align 4
  %54 = call i32 @setsockopt(i32 noundef %53, i32 noundef 1, i32 noundef 7, ptr noundef %12, i32 noundef 4) #5
  %55 = icmp slt i32 %54, 0
  br i1 %55, label %56, label %57

56:                                               ; preds = %51
  store i32 -1, ptr %5, align 4
  br label %74

57:                                               ; preds = %51
  br label %71

58:                                               ; preds = %48
  %59 = load i32, ptr %8, align 4
  %60 = icmp eq i32 %59, 2
  br i1 %60, label %61, label %69

61:                                               ; preds = %58
  %62 = load i8, ptr %9, align 1
  %63 = zext i8 %62 to i32
  store i32 %63, ptr %13, align 4
  %64 = load i32, ptr %7, align 4
  %65 = call i32 @setsockopt(i32 noundef %64, i32 noundef 1, i32 noundef 2, ptr noundef %13, i32 noundef 4) #5
  %66 = icmp slt i32 %65, 0
  br i1 %66, label %67, label %68

67:                                               ; preds = %61
  store i32 -1, ptr %5, align 4
  br label %74

68:                                               ; preds = %61
  br label %70

69:                                               ; preds = %58
  store i32 -1, ptr %5, align 4
  br label %74

70:                                               ; preds = %68
  br label %71

71:                                               ; preds = %70, %57
  br label %72

72:                                               ; preds = %71, %47
  br label %73

73:                                               ; preds = %72, %24
  store i32 0, ptr %5, align 4
  br label %74

74:                                               ; preds = %73, %69, %67, %56, %46, %23
  %75 = load i32, ptr %5, align 4
  ret i32 %75
}