; Function Attrs: nounwind uwtable
define hidden range(i32 -1, 1) i32 @dbgsysSetSocketOption(i32 noundef %0, i32 noundef %1, i8 noundef zeroext %2, i64 %3) local_unnamed_addr #0 {
  %5 = alloca i32, align 4
  %6 = alloca %struct.linger, align 4
  %7 = alloca i32, align 4
  %8 = alloca i32, align 4
  %.sroa.0.0.extract.trunc = trunc i64 %3 to i32
  switch i32 %1, label %28 [
    i32 1, label %9
    i32 13, label %13
    i32 7, label %20
    i32 2, label %23
  ]

9:                                                ; preds = %4
  %10 = zext i8 %2 to i32
  store i32 %10, ptr %5, align 4
  %11 = call i32 @setsockopt(i32 noundef %0, i32 noundef 6, i32 noundef 1, ptr noundef nonnull %5, i32 noundef 4) #11
  %12 = icmp slt i32 %11, 0
  br i1 %12, label %28, label %27

13:                                               ; preds = %4
  %14 = zext i8 %2 to i32
  store i32 %14, ptr %6, align 4
  %.not = icmp eq i8 %2, 0
  %15 = and i32 %.sroa.0.0.extract.trunc, 65535
  %16 = select i1 %.not, i32 0, i32 %15
  %17 = getelementptr inbounds i8, ptr %6, i64 4
  store i32 %16, ptr %17, align 4
  %18 = call i32 @setsockopt(i32 noundef %0, i32 noundef 1, i32 noundef 13, ptr noundef nonnull %6, i32 noundef 8) #11
  %19 = icmp slt i32 %18, 0
  br i1 %19, label %28, label %27

20:                                               ; preds = %4
  store i32 %.sroa.0.0.extract.trunc, ptr %7, align 4
  %21 = call i32 @setsockopt(i32 noundef %0, i32 noundef 1, i32 noundef 7, ptr noundef nonnull %7, i32 noundef 4) #11
  %22 = icmp slt i32 %21, 0
  br i1 %22, label %28, label %27

23:                                               ; preds = %4
  %24 = zext i8 %2 to i32
  store i32 %24, ptr %8, align 4
  %25 = call i32 @setsockopt(i32 noundef %0, i32 noundef 1, i32 noundef 2, ptr noundef nonnull %8, i32 noundef 4) #11
  %26 = icmp slt i32 %25, 0
  br i1 %26, label %28, label %27

27:                                               ; preds = %13, %23, %20, %9
  br label %28

28:                                               ; preds = %4, %23, %20, %13, %9, %27
  %.0 = phi i32 [ 0, %27 ], [ -1, %9 ], [ -1, %13 ], [ -1, %20 ], [ -1, %23 ], [ -1, %4 ]
  ret i32 %.0
}